; Function Attrs: mustprogress nofree norecurse nosync nounwind willreturn memory(read, inaccessiblemem: none) uwtable
define hidden noundef zeroext i1 @_ZN11realclosure7manager17is_transcendentalERKNS_3numE(ptr noundef nonnull readonly align 8 captures(none) dereferenceable(8) %0, ptr noundef nonnull readonly align 8 captures(none) dereferenceable(8) %1) local_unnamed_addr #9 align 2 {
  %3 = load ptr, ptr %1, align 8, !tbaa !84
  %4 = getelementptr inbounds nuw i8, ptr %3, i64 4
  %5 = load i8, ptr %4, align 4, !tbaa !61, !range !105, !noundef !106
  %6 = trunc nuw i8 %5 to i1
  br i1 %6, label %_ZN11realclosure7manager3imp17is_transcendentalERKNS_3numE.exit, label %7

7:                                                ; preds = %2
  %8 = getelementptr inbounds nuw i8, ptr %3, i64 88
  %9 = load ptr, ptr %8, align 8, !tbaa !108
  %10 = getelementptr inbounds nuw i8, ptr %9, i64 4
  %11 = load i32, ptr %10, align 4
  %12 = and i32 %11, 3
  %13 = icmp eq i32 %12, 0
  br label %_ZN11realclosure7manager3imp17is_transcendentalERKNS_3numE.exit

_ZN11realclosure7manager3imp17is_transcendentalERKNS_3numE.exit: ; preds = %2, %7
  %14 = phi i1 [ false, %2 ], [ %13, %7 ]
  ret i1 %14
}